; Function Attrs: mustprogress uwtable
define void @_ZN7rocksdb34BlockCacheHumanReadableTraceWriter15NewWritableFileERKNSt7__cxx1112basic_stringIcSt11char_traitsIcESaIcEEEPNS_3EnvE(ptr dead_on_unwind noalias writable sret(%"class.rocksdb::Status") align 8 %0, ptr noundef nonnull align 8 dereferenceable(1048584) %1, ptr noundef nonnull align 8 dereferenceable(32) %2, ptr noundef %3) local_unnamed_addr #5 align 2 {
  %5 = alloca %"class.rocksdb::Slice", align 8
  %6 = alloca %"class.rocksdb::Slice", align 8
  %7 = alloca %"struct.rocksdb::EnvOptions", align 8
  %8 = getelementptr inbounds nuw i8, ptr %2, i64 8
  %9 = load i64, ptr %8, align 8, !tbaa !16
  %10 = icmp eq i64 %9, 0
  br i1 %10, label %11, label %14

11:                                               ; preds = %4
  call void @llvm.lifetime.start.p0(i64 16, ptr nonnull %5) #28
  store ptr @.str.63, ptr %5, align 8, !tbaa !68
  %12 = getelementptr inbounds nuw i8, ptr %5, i64 8
  store i64 52, ptr %12, align 8, !tbaa !66
  call void @llvm.lifetime.start.p0(i64 16, ptr nonnull %6) #28
  store ptr @.str, ptr %6, align 8, !tbaa !68
  %13 = getelementptr inbounds nuw i8, ptr %6, i64 8
  store i64 0, ptr %13, align 8, !tbaa !66
  call void @_ZN7rocksdb6StatusC2ENS0_4CodeENS0_7SubCodeERKNS_5SliceES5_NS0_8SeverityE(ptr noundef nonnull align 8 dereferenceable(16) %0, i8 noundef zeroext 4, i8 noundef zeroext 0, ptr noundef nonnull align 8 dereferenceable(16) %5, ptr noundef nonnull align 8 dereferenceable(16) %6, i8 noundef zeroext 0)
  call void @llvm.lifetime.end.p0(i64 16, ptr nonnull %6) #28
  call void @llvm.lifetime.end.p0(i64 16, ptr nonnull %5) #28
  br label %19

14:                                               ; preds = %4
  %15 = getelementptr inbounds nuw i8, ptr %1, i64 1048576
  call void @llvm.lifetime.start.p0(i64 48, ptr nonnull %7) #28
  call void @_ZN7rocksdb10EnvOptionsC1Ev(ptr noundef nonnull align 8 dereferenceable(48) %7)
  %16 = load ptr, ptr %3, align 8, !tbaa !39
  %17 = getelementptr inbounds nuw i8, ptr %16, i64 184
  %18 = load ptr, ptr %17, align 8
  call void %18(ptr dead_on_unwind writable sret(%"class.rocksdb::Status") align 8 %0, ptr noundef nonnull align 8 dereferenceable(72) %3, ptr noundef nonnull align 8 dereferenceable(32) %2, ptr noundef nonnull %15, ptr noundef nonnull align 8 dereferenceable(48) %7)
  call void @llvm.lifetime.end.p0(i64 48, ptr nonnull %7) #28
  br label %19

19:                                               ; preds = %14, %11
  ret void
}